target datalayout = "e-m:e-p270:32:32-p271:32:32-p272:64:64-i64:64-i128:128-f80:128-n8:16:32:64-S128"
target triple = "x86_64-pc-linux-gnu"

%struct.t_block = type { i32, ptr, i32 }
%struct.t_blocka = type { i32, ptr, i32, ptr, i32, i32 }

; Function Attrs: mustprogress nounwind uwtable
define linkonce_odr noundef float @_Zli5_reale(x86_fp80 noundef %0) #4 comdat {
  %2 = alloca x86_fp80, align 16
  store x86_fp80 %0, ptr %2, align 16, !tbaa !19
  %3 = load x86_fp80, ptr %2, align 16, !tbaa !19
  %4 = fptrunc x86_fp80 %3 to float
  ret float %4
}

; Function Attrs: inlinehint mustprogress nounwind uwtable
define internal void @_ZL5svmulfPKfPf(float noundef %0, ptr noundef %1, ptr noundef %2) #3 {
  %4 = alloca float, align 4
  %5 = alloca ptr, align 8
  %6 = alloca ptr, align 8
  store float %0, ptr %4, align 4, !tbaa !17
  store ptr %1, ptr %5, align 8, !tbaa !9
  store ptr %2, ptr %6, align 8, !tbaa !9
  %7 = load float, ptr %4, align 4, !tbaa !17
  %8 = load ptr, ptr %5, align 8, !tbaa !9
  %9 = getelementptr inbounds float, ptr %8, i64 0
  %10 = load float, ptr %9, align 4, !tbaa !17
  %11 = fmul float %7, %10
  %12 = load ptr, ptr %6, align 8, !tbaa !9
  %13 = getelementptr inbounds float, ptr %12, i64 0
  store float %11, ptr %13, align 4, !tbaa !17
  %14 = load float, ptr %4, align 4, !tbaa !17
  %15 = load ptr, ptr %5, align 8, !tbaa !9
  %16 = getelementptr inbounds float, ptr %15, i64 1
  %17 = load float, ptr %16, align 4, !tbaa !17
  %18 = fmul float %14, %17
  %19 = load ptr, ptr %6, align 8, !tbaa !9
  %20 = getelementptr inbounds float, ptr %19, i64 1
  store float %18, ptr %20, align 4, !tbaa !17
  %21 = load float, ptr %4, align 4, !tbaa !17
  %22 = load ptr, ptr %5, align 8, !tbaa !9
  %23 = getelementptr inbounds float, ptr %22, i64 2
  %24 = load float, ptr %23, align 4, !tbaa !17
  %25 = fmul float %21, %24
  %26 = load ptr, ptr %6, align 8, !tbaa !9
  %27 = getelementptr inbounds float, ptr %26, i64 2
  store float %25, ptr %27, align 4, !tbaa !17
  ret void
}

; Function Attrs: inlinehint mustprogress nounwind uwtable
define internal void @_ZL8rvec_incPfPKf(ptr noundef %0, ptr noundef %1) #3 {
  %3 = alloca ptr, align 8
  %4 = alloca ptr, align 8
  %5 = alloca float, align 4
  %6 = alloca float, align 4
  %7 = alloca float, align 4
  store ptr %0, ptr %3, align 8, !tbaa !9
  store ptr %1, ptr %4, align 8, !tbaa !9
  call void @llvm.lifetime.start.p0(i64 4, ptr %5) #8
  call void @llvm.lifetime.start.p0(i64 4, ptr %6) #8
  call void @llvm.lifetime.start.p0(i64 4, ptr %7) #8
  %8 = load ptr, ptr %3, align 8, !tbaa !9
  %9 = getelementptr inbounds float, ptr %8, i64 0
  %10 = load float, ptr %9, align 4, !tbaa !17
  %11 = load ptr, ptr %4, align 8, !tbaa !9
  %12 = getelementptr inbounds float, ptr %11, i64 0
  %13 = load float, ptr %12, align 4, !tbaa !17
  %14 = fadd float %10, %13
  store float %14, ptr %5, align 4, !tbaa !17
  %15 = load ptr, ptr %3, align 8, !tbaa !9
  %16 = getelementptr inbounds float, ptr %15, i64 1
  %17 = load float, ptr %16, align 4, !tbaa !17
  %18 = load ptr, ptr %4, align 8, !tbaa !9
  %19 = getelementptr inbounds float, ptr %18, i64 1
  %20 = load float, ptr %19, align 4, !tbaa !17
  %21 = fadd float %17, %20
  store float %21, ptr %6, align 4, !tbaa !17
  %22 = load ptr, ptr %3, align 8, !tbaa !9
  %23 = getelementptr inbounds float, ptr %22, i64 2
  %24 = load float, ptr %23, align 4, !tbaa !17
  %25 = load ptr, ptr %4, align 8, !tbaa !9
  %26 = getelementptr inbounds float, ptr %25, i64 2
  %27 = load float, ptr %26, align 4, !tbaa !17
  %28 = fadd float %24, %27
  store float %28, ptr %7, align 4, !tbaa !17
  %29 = load float, ptr %5, align 4, !tbaa !17
  %30 = load ptr, ptr %3, align 8, !tbaa !9
  %31 = getelementptr inbounds float, ptr %30, i64 0
  store float %29, ptr %31, align 4, !tbaa !17
  %32 = load float, ptr %6, align 4, !tbaa !17
  %33 = load ptr, ptr %3, align 8, !tbaa !9
  %34 = getelementptr inbounds float, ptr %33, i64 1
  store float %32, ptr %34, align 4, !tbaa !17
  %35 = load float, ptr %7, align 4, !tbaa !17
  %36 = load ptr, ptr %3, align 8, !tbaa !9
  %37 = getelementptr inbounds float, ptr %36, i64 2
  store float %35, ptr %37, align 4, !tbaa !17
  call void @llvm.lifetime.end.p0(i64 4, ptr %7) #8
  call void @llvm.lifetime.end.p0(i64 4, ptr %6) #8
  call void @llvm.lifetime.end.p0(i64 4, ptr %5) #8
  ret void
}

; Function Attrs: inlinehint mustprogress uwtable
define internal void @_ZL10clear_rvecPf(ptr noundef %0) #2 {
  %2 = alloca ptr, align 8
  store ptr %0, ptr %2, align 8, !tbaa !9
  %3 = call noundef float @_Zli5_reale(x86_fp80 noundef 0xK00000000000000000000)
  %4 = load ptr, ptr %2, align 8, !tbaa !9
  %5 = getelementptr inbounds float, ptr %4, i64 0
  store float %3, ptr %5, align 4, !tbaa !17
  %6 = call noundef float @_Zli5_reale(x86_fp80 noundef 0xK00000000000000000000)
  %7 = load ptr, ptr %2, align 8, !tbaa !9
  %8 = getelementptr inbounds float, ptr %7, i64 1
  store float %6, ptr %8, align 4, !tbaa !17
  %9 = call noundef float @_Zli5_reale(x86_fp80 noundef 0xK00000000000000000000)
  %10 = load ptr, ptr %2, align 8, !tbaa !9
  %11 = getelementptr inbounds float, ptr %10, i64 2
  store float %9, ptr %11, align 4, !tbaa !17
  ret void
}

; Function Attrs: mustprogress uwtable
define void @_Z18gmx_calc_cog_blockPK10gmx_mtop_tPA3_fPK7t_blockPKiS3_(ptr noundef %0, ptr noundef %1, ptr noundef %2, ptr noundef %3, ptr noundef %4) #0 {
  %6 = alloca ptr, align 8
  %7 = alloca ptr, align 8
  %8 = alloca ptr, align 8
  %9 = alloca ptr, align 8
  %10 = alloca ptr, align 8
  %11 = alloca i32, align 4
  %12 = alloca i32, align 4
  %13 = alloca i32, align 4
  %14 = alloca [3 x float], align 4
  store ptr %0, ptr %6, align 8, !tbaa !4
  store ptr %1, ptr %7, align 8, !tbaa !9
  store ptr %2, ptr %8, align 8, !tbaa !93
  store ptr %3, ptr %9, align 8, !tbaa !13
  store ptr %4, ptr %10, align 8, !tbaa !9
  call void @llvm.lifetime.start.p0(i64 4, ptr %11) #8
  call void @llvm.lifetime.start.p0(i64 4, ptr %12) #8
  call void @llvm.lifetime.start.p0(i64 4, ptr %13) #8
  call void @llvm.lifetime.start.p0(i64 12, ptr %14) #8
  store i32 0, ptr %11, align 4, !tbaa !11
  br label %15

15:                                               ; preds = %82, %5
  %16 = load i32, ptr %11, align 4, !tbaa !11
  %17 = load ptr, ptr %8, align 8, !tbaa !93
  %18 = getelementptr inbounds nuw %struct.t_block, ptr %17, i32 0, i32 0
  %19 = load i32, ptr %18, align 8, !tbaa !95
  %20 = icmp slt i32 %16, %19
  br i1 %20, label %21, label %85

21:                                               ; preds = %15
  %22 = getelementptr inbounds [3 x float], ptr %14, i64 0, i64 0
  call void @_ZL10clear_rvecPf(ptr noundef %22)
  %23 = load ptr, ptr %8, align 8, !tbaa !93
  %24 = getelementptr inbounds nuw %struct.t_block, ptr %23, i32 0, i32 1
  %25 = load ptr, ptr %24, align 8, !tbaa !97
  %26 = load i32, ptr %11, align 4, !tbaa !11
  %27 = sext i32 %26 to i64
  %28 = getelementptr inbounds i32, ptr %25, i64 %27
  %29 = load i32, ptr %28, align 4, !tbaa !11
  store i32 %29, ptr %12, align 4, !tbaa !11
  br label %30

30:                                               ; preds = %53, %21
  %31 = load i32, ptr %12, align 4, !tbaa !11
  %32 = load ptr, ptr %8, align 8, !tbaa !93
  %33 = getelementptr inbounds nuw %struct.t_block, ptr %32, i32 0, i32 1
  %34 = load ptr, ptr %33, align 8, !tbaa !97
  %35 = load i32, ptr %11, align 4, !tbaa !11
  %36 = add nsw i32 %35, 1
  %37 = sext i32 %36 to i64
  %38 = getelementptr inbounds i32, ptr %34, i64 %37
  %39 = load i32, ptr %38, align 4, !tbaa !11
  %40 = icmp slt i32 %31, %39
  br i1 %40, label %41, label %56

41:                                               ; preds = %30
  %42 = load ptr, ptr %9, align 8, !tbaa !13
  %43 = load i32, ptr %12, align 4, !tbaa !11
  %44 = sext i32 %43 to i64
  %45 = getelementptr inbounds i32, ptr %42, i64 %44
  %46 = load i32, ptr %45, align 4, !tbaa !11
  store i32 %46, ptr %13, align 4, !tbaa !11
  %47 = getelementptr inbounds [3 x float], ptr %14, i64 0, i64 0
  %48 = load ptr, ptr %7, align 8, !tbaa !9
  %49 = load i32, ptr %13, align 4, !tbaa !11
  %50 = sext i32 %49 to i64
  %51 = getelementptr inbounds [3 x float], ptr %48, i64 %50
  %52 = getelementptr inbounds [3 x float], ptr %51, i64 0, i64 0
  call void @_ZL8rvec_incPfPKf(ptr noundef %47, ptr noundef %52)
  br label %53

53:                                               ; preds = %41
  %54 = load i32, ptr %12, align 4, !tbaa !11
  %55 = add nsw i32 %54, 1
  store i32 %55, ptr %12, align 4, !tbaa !11
  br label %30, !llvm.loop !98

56:                                               ; preds = %30
  %57 = load ptr, ptr %8, align 8, !tbaa !93
  %58 = getelementptr inbounds nuw %struct.t_block, ptr %57, i32 0, i32 1
  %59 = load ptr, ptr %58, align 8, !tbaa !97
  %60 = load i32, ptr %11, align 4, !tbaa !11
  %61 = add nsw i32 %60, 1
  %62 = sext i32 %61 to i64
  %63 = getelementptr inbounds i32, ptr %59, i64 %62
  %64 = load i32, ptr %63, align 4, !tbaa !11
  %65 = load ptr, ptr %8, align 8, !tbaa !93
  %66 = getelementptr inbounds nuw %struct.t_block, ptr %65, i32 0, i32 1
  %67 = load ptr, ptr %66, align 8, !tbaa !97
  %68 = load i32, ptr %11, align 4, !tbaa !11
  %69 = sext i32 %68 to i64
  %70 = getelementptr inbounds i32, ptr %67, i64 %69
  %71 = load i32, ptr %70, align 4, !tbaa !11
  %72 = sub nsw i32 %64, %71
  %73 = sitofp i32 %72 to double
  %74 = fdiv double 1.000000e+00, %73
  %75 = fptrunc double %74 to float
  %76 = getelementptr inbounds [3 x float], ptr %14, i64 0, i64 0
  %77 = load ptr, ptr %10, align 8, !tbaa !9
  %78 = load i32, ptr %11, align 4, !tbaa !11
  %79 = sext i32 %78 to i64
  %80 = getelementptr inbounds [3 x float], ptr %77, i64 %79
  %81 = getelementptr inbounds [3 x float], ptr %80, i64 0, i64 0
  call void @_ZL5svmulfPKfPf(float noundef %75, ptr noundef %76, ptr noundef %81)
  br label %82

82:                                               ; preds = %56
  %83 = load i32, ptr %11, align 4, !tbaa !11
  %84 = add nsw i32 %83, 1
  store i32 %84, ptr %11, align 4, !tbaa !11
  br label %15, !llvm.loop !99

85:                                               ; preds = %15
  call void @llvm.lifetime.end.p0(i64 12, ptr %14) #8
  call void @llvm.lifetime.end.p0(i64 4, ptr %13) #8
  call void @llvm.lifetime.end.p0(i64 4, ptr %12) #8
  call void @llvm.lifetime.end.p0(i64 4, ptr %11) #8
  ret void
}

; Function Attrs: mustprogress uwtable
define void @_Z19gmx_calc_comg_blockPK10gmx_mtop_tPA3_fPK7t_blockPKibS3_(ptr noundef %0, ptr noundef %1, ptr noundef %2, ptr noundef %3, i1 noundef zeroext %4, ptr noundef %5) #0 {
  %7 = alloca ptr, align 8
  %8 = alloca ptr, align 8
  %9 = alloca ptr, align 8
  %10 = alloca ptr, align 8
  %11 = alloca i8, align 1
  %12 = alloca ptr, align 8
  store ptr %0, ptr %7, align 8, !tbaa !4
  store ptr %1, ptr %8, align 8, !tbaa !9
  store ptr %2, ptr %9, align 8, !tbaa !93
  store ptr %3, ptr %10, align 8, !tbaa !13
  %13 = zext i1 %4 to i8
  store i8 %13, ptr %11, align 1, !tbaa !80
  store ptr %5, ptr %12, align 8, !tbaa !9
  %14 = load i8, ptr %11, align 1, !tbaa !80, !range !81, !noundef !82
  %15 = trunc i8 %14 to i1
  br i1 %15, label %16, label %22

16:                                               ; preds = %6
  %17 = load ptr, ptr %7, align 8, !tbaa !4
  %18 = load ptr, ptr %8, align 8, !tbaa !9
  %19 = load ptr, ptr %9, align 8, !tbaa !93
  %20 = load ptr, ptr %10, align 8, !tbaa !13
  %21 = load ptr, ptr %12, align 8, !tbaa !9
  call void @_Z18gmx_calc_com_blockPK10gmx_mtop_tPA3_fPK7t_blockPKiS3_(ptr noundef %17, ptr noundef %18, ptr noundef %19, ptr noundef %20, ptr noundef %21)
  br label %28

22:                                               ; preds = %6
  %23 = load ptr, ptr %7, align 8, !tbaa !4
  %24 = load ptr, ptr %8, align 8, !tbaa !9
  %25 = load ptr, ptr %9, align 8, !tbaa !93
  %26 = load ptr, ptr %10, align 8, !tbaa !13
  %27 = load ptr, ptr %12, align 8, !tbaa !9
  call void @_Z18gmx_calc_cog_blockPK10gmx_mtop_tPA3_fPK7t_blockPKiS3_(ptr noundef %23, ptr noundef %24, ptr noundef %25, ptr noundef %26, ptr noundef %27)
  br label %28

28:                                               ; preds = %22, %16
  ret void
}

; Function Attrs: mustprogress uwtable
define void @_Z20gmx_calc_comg_blockaPK10gmx_mtop_tPA3_fPK8t_blockabS3_(ptr noundef %0, ptr noundef %1, ptr noundef %2, i1 noundef zeroext %3, ptr noundef %4) #0 {
  %6 = alloca ptr, align 8
  %7 = alloca ptr, align 8
  %8 = alloca ptr, align 8
  %9 = alloca i8, align 1
  %10 = alloca ptr, align 8
  store ptr %0, ptr %6, align 8, !tbaa !4
  store ptr %1, ptr %7, align 8, !tbaa !9
  store ptr %2, ptr %8, align 8, !tbaa !108
  %11 = zext i1 %3 to i8
  store i8 %11, ptr %9, align 1, !tbaa !80
  store ptr %4, ptr %10, align 8, !tbaa !9
  %12 = load ptr, ptr %6, align 8, !tbaa !4
  %13 = load ptr, ptr %7, align 8, !tbaa !9
  %14 = load ptr, ptr %8, align 8, !tbaa !108
  %15 = load ptr, ptr %8, align 8, !tbaa !108
  %16 = getelementptr inbounds nuw %struct.t_blocka, ptr %15, i32 0, i32 3
  %17 = load ptr, ptr %16, align 8, !tbaa !110
  %18 = load i8, ptr %9, align 1, !tbaa !80, !range !81, !noundef !82
  %19 = trunc i8 %18 to i1
  %20 = load ptr, ptr %10, align 8, !tbaa !9
  call void @_Z19gmx_calc_comg_blockPK10gmx_mtop_tPA3_fPK7t_blockPKibS3_(ptr noundef %12, ptr noundef %13, ptr noundef %14, ptr noundef %17, i1 noundef zeroext %19, ptr noundef %20)
  ret void
}