; Function Attrs: mustprogress uwtable
define void @_Z20gmx_calc_comg_blockaPK10gmx_mtop_tPA3_fPK8t_blockabS3_(ptr noundef %0, ptr noundef readonly captures(none) %1, ptr noundef readonly captures(none) %2, i1 noundef zeroext %3, ptr noundef writeonly captures(none) %4) local_unnamed_addr #2 {
  %6 = getelementptr inbounds nuw i8, ptr %2, i64 24
  %7 = load ptr, ptr %6, align 8, !tbaa !81
  br i1 %3, label %8, label %9

8:                                                ; preds = %5
  tail call void @_Z18gmx_calc_com_blockPK10gmx_mtop_tPA3_fPK7t_blockPKiS3_(ptr noundef %0, ptr noundef readonly %1, ptr noundef nonnull readonly %2, ptr noundef readonly %7, ptr noundef %4)
  br label %_Z19gmx_calc_comg_blockPK10gmx_mtop_tPA3_fPK7t_blockPKibS3_.exit

9:                                                ; preds = %5
  %10 = load i32, ptr %2, align 8, !tbaa !68
  %11 = icmp sgt i32 %10, 0
  br i1 %11, label %.lr.ph34.i.i, label %_Z19gmx_calc_comg_blockPK10gmx_mtop_tPA3_fPK7t_blockPKibS3_.exit

.lr.ph34.i.i:                                     ; preds = %9
  %12 = getelementptr inbounds nuw i8, ptr %2, i64 8
  %13 = load ptr, ptr %12, align 8, !tbaa !70
  %wide.trip.count42.i.i = zext nneg i32 %10 to i64
  %.pre.i.i = load i32, ptr %13, align 4, !tbaa !8
  br label %14

14:                                               ; preds = %._crit_edge.i.i, %.lr.ph34.i.i
  %15 = phi i32 [ %.pre.i.i, %.lr.ph34.i.i ], [ %17, %._crit_edge.i.i ]
  %indvars.iv39.i.i = phi i64 [ 0, %.lr.ph34.i.i ], [ %indvars.iv.next40.i.i, %._crit_edge.i.i ]
  %indvars.iv.next40.i.i = add nuw nsw i64 %indvars.iv39.i.i, 1
  %16 = getelementptr inbounds nuw i32, ptr %13, i64 %indvars.iv.next40.i.i
  %17 = load i32, ptr %16, align 4, !tbaa !8
  %18 = icmp slt i32 %15, %17
  br i1 %18, label %.lr.ph.preheader.i.i, label %._crit_edge.i.i

.lr.ph.preheader.i.i:                             ; preds = %14
  %19 = sext i32 %15 to i64
  %wide.trip.count.i.i = sext i32 %17 to i64
  br label %.lr.ph.i.i

.lr.ph.i.i:                                       ; preds = %.lr.ph.i.i, %.lr.ph.preheader.i.i
  %indvars.iv.i.i = phi i64 [ %19, %.lr.ph.preheader.i.i ], [ %indvars.iv.next.i.i, %.lr.ph.i.i ]
  %.sroa.0.026.i.i = phi float [ 0.000000e+00, %.lr.ph.preheader.i.i ], [ %25, %.lr.ph.i.i ]
  %.sroa.6.025.i.i = phi float [ 0.000000e+00, %.lr.ph.preheader.i.i ], [ %28, %.lr.ph.i.i ]
  %.sroa.10.024.i.i = phi float [ 0.000000e+00, %.lr.ph.preheader.i.i ], [ %31, %.lr.ph.i.i ]
  %20 = getelementptr inbounds i32, ptr %7, i64 %indvars.iv.i.i
  %21 = load i32, ptr %20, align 4, !tbaa !8
  %22 = sext i32 %21 to i64
  %23 = getelementptr inbounds [3 x float], ptr %1, i64 %22
  %24 = load float, ptr %23, align 4, !tbaa !4
  %25 = fadd float %.sroa.0.026.i.i, %24
  %26 = getelementptr inbounds nuw i8, ptr %23, i64 4
  %27 = load float, ptr %26, align 4, !tbaa !4
  %28 = fadd float %.sroa.6.025.i.i, %27
  %29 = getelementptr inbounds nuw i8, ptr %23, i64 8
  %30 = load float, ptr %29, align 4, !tbaa !4
  %31 = fadd float %.sroa.10.024.i.i, %30
  %indvars.iv.next.i.i = add nsw i64 %indvars.iv.i.i, 1
  %exitcond.not.i.i = icmp eq i64 %indvars.iv.next.i.i, %wide.trip.count.i.i
  br i1 %exitcond.not.i.i, label %._crit_edge.i.i, label %.lr.ph.i.i, !llvm.loop !71

._crit_edge.i.i:                                  ; preds = %.lr.ph.i.i, %14
  %.sroa.10.0.lcssa.i.i = phi float [ 0.000000e+00, %14 ], [ %31, %.lr.ph.i.i ]
  %.sroa.6.0.lcssa.i.i = phi float [ 0.000000e+00, %14 ], [ %28, %.lr.ph.i.i ]
  %.sroa.0.0.lcssa.i.i = phi float [ 0.000000e+00, %14 ], [ %25, %.lr.ph.i.i ]
  %32 = sub nsw i32 %17, %15
  %33 = sitofp i32 %32 to double
  %34 = fdiv double 1.000000e+00, %33
  %35 = fptrunc double %34 to float
  %36 = getelementptr inbounds nuw [3 x float], ptr %4, i64 %indvars.iv39.i.i
  %37 = fmul float %.sroa.0.0.lcssa.i.i, %35
  store float %37, ptr %36, align 4, !tbaa !4
  %38 = fmul float %.sroa.6.0.lcssa.i.i, %35
  %39 = getelementptr inbounds nuw i8, ptr %36, i64 4
  store float %38, ptr %39, align 4, !tbaa !4
  %40 = fmul float %.sroa.10.0.lcssa.i.i, %35
  %41 = getelementptr inbounds nuw i8, ptr %36, i64 8
  store float %40, ptr %41, align 4, !tbaa !4
  %exitcond43.not.i.i = icmp eq i64 %indvars.iv.next40.i.i, %wide.trip.count42.i.i
  br i1 %exitcond43.not.i.i, label %_Z19gmx_calc_comg_blockPK10gmx_mtop_tPA3_fPK7t_blockPKibS3_.exit, label %14, !llvm.loop !72

_Z19gmx_calc_comg_blockPK10gmx_mtop_tPA3_fPK7t_blockPKibS3_.exit: ; preds = %._crit_edge.i.i, %8, %9
  ret void
}